---
triple:          'arm64-apple-darwin'
binary-path:     '/Users/amitmahato/codecpp/codeforces/fractal'
relocations:
  - { offset: 0x8EB9, size: 0x8, addend: 0x0, symName: __ZStL8__ioinit, symObjAddr: 0x3678F, symBinAddr: 0x10000C000, symSize: 0x0 }
  - { offset: 0x8ED7, size: 0x8, addend: 0x0, symName: _row, symObjAddr: 0x36790, symBinAddr: 0x10000C004, symSize: 0x0 }
  - { offset: 0x8EED, size: 0x8, addend: 0x0, symName: _col, symObjAddr: 0x36794, symBinAddr: 0x10000C008, symSize: 0x0 }
  - { offset: 0x927C, size: 0x8, addend: 0x0, symName: __GLOBAL__sub_I_fractal.cpp, symObjAddr: 0x3938, symBinAddr: 0x100003F34, symSize: 0x14 }
  - { offset: 0x9293, size: 0x8, addend: 0x0, symName: __Z41__static_initialization_and_destruction_0v, symObjAddr: 0x38FC, symBinAddr: 0x100003EF8, symSize: 0x3C }
  - { offset: 0x92AA, size: 0x8, addend: 0x0, symName: __ZNSt11__copy_moveILb0ELb0ESt26random_access_iterator_tagE12__assign_oneIccEEvPT_PT0_, symObjAddr: 0x3738, symBinAddr: 0x100003ED0, symSize: 0x28 }
  - { offset: 0x92F4, size: 0x8, addend: 0x0, symName: __ZNSt11__copy_moveILb0ELb0ESt26random_access_iterator_tagE12__assign_oneIcKcEEvPT_PT0_, symObjAddr: 0x3710, symBinAddr: 0x100003EA8, symSize: 0x28 }
  - { offset: 0x933E, size: 0x8, addend: 0x0, symName: __ZSt13__copy_move_aILb0EN9__gnu_cxx17__normal_iteratorIPKcSt6vectorIcSaIcEEEEPcET1_T0_SA_S9_, symObjAddr: 0x36B0, symBinAddr: 0x100003E48, symSize: 0x60 }
  - { offset: 0x93A2, size: 0x8, addend: 0x0, symName: __ZNSt11__copy_moveILb0ELb1ESt26random_access_iterator_tagE8__copy_mIccEEPT0_PT_S6_S4_, symObjAddr: 0x362C, symBinAddr: 0x100003DC4, symSize: 0x84 }
  - { offset: 0x940C, size: 0x8, addend: 0x0, symName: __ZNSt11__copy_moveILb0ELb1ESt26random_access_iterator_tagE8__copy_mIKccEEPT0_PT_S7_S5_, symObjAddr: 0x35A8, symBinAddr: 0x100003D40, symSize: 0x84 }
  - { offset: 0x9476, size: 0x8, addend: 0x0, symName: __ZSt4copyIN9__gnu_cxx17__normal_iteratorIPKcSt6vectorIcSaIcEEEEPcET0_T_SA_S9_, symObjAddr: 0x3560, symBinAddr: 0x100003CF8, symSize: 0x48 }
  - { offset: 0x94D0, size: 0x8, addend: 0x0, symName: __ZSt14__copy_move_a2ILb0EPcS0_ET1_T0_S2_S1_, symObjAddr: 0x3534, symBinAddr: 0x100003CCC, symSize: 0x2C }
  - { offset: 0x9538, size: 0x8, addend: 0x0, symName: __ZNK9__gnu_cxx17__normal_iteratorIPcSt6vectorIcSaIcEEEplEl, symObjAddr: 0x34F8, symBinAddr: 0x100003C90, symSize: 0x3C }
  - { offset: 0x956C, size: 0x8, addend: 0x0, symName: __ZSt14__copy_move_a2ILb0EPKcPcET1_T0_S4_S3_, symObjAddr: 0x34CC, symBinAddr: 0x100003C64, symSize: 0x2C }
  - { offset: 0x95D4, size: 0x8, addend: 0x0, symName: __ZNK9__gnu_cxx17__normal_iteratorIPKcSt6vectorIcSaIcEEE4baseEv, symObjAddr: 0x34B8, symBinAddr: 0x100003C50, symSize: 0x14 }
  - { offset: 0x95F8, size: 0x8, addend: 0x0, symName: __ZNSt20__uninitialized_copyILb1EE13__uninit_copyIN9__gnu_cxx17__normal_iteratorIPKcSt6vectorIcSaIcEEEEPcEET0_T_SC_SB_, symObjAddr: 0x348C, symBinAddr: 0x100003C24, symSize: 0x2C }
  - { offset: 0x964F, size: 0x8, addend: 0x0, symName: __ZNSt20__uninitialized_copyILb1EE13__uninit_copyIPcS2_EET0_T_S4_S3_, symObjAddr: 0x3460, symBinAddr: 0x100003BF8, symSize: 0x2C }
  - { offset: 0x96A6, size: 0x8, addend: 0x0, symName: __ZSt12__niter_wrapIPcET_RKS1_S1_, symObjAddr: 0x3448, symBinAddr: 0x100003BE0, symSize: 0x18 }
  - { offset: 0x96DF, size: 0x8, addend: 0x0, symName: __ZSt14__copy_move_a1ILb0EPcS0_ET1_T0_S2_S1_, symObjAddr: 0x341C, symBinAddr: 0x100003BB4, symSize: 0x2C }
  - { offset: 0x9743, size: 0x8, addend: 0x0, symName: __ZSt12__niter_baseIPcET_S1_, symObjAddr: 0x3408, symBinAddr: 0x100003BA0, symSize: 0x14 }
  - { offset: 0x9774, size: 0x8, addend: 0x0, symName: __ZNSt12_Destroy_auxILb1EE9__destroyIN9__gnu_cxx17__normal_iteratorIPcSt6vectorIcSaIcEEEEEEvT_S9_, symObjAddr: 0x33F0, symBinAddr: 0x100003B88, symSize: 0x18 }
  - { offset: 0x97A5, size: 0x8, addend: 0x0, symName: __ZSt12__niter_wrapIN9__gnu_cxx17__normal_iteratorIPcSt6vectorIcSaIcEEEES2_ET_S7_T0_, symObjAddr: 0x33B0, symBinAddr: 0x100003B48, symSize: 0x40 }
  - { offset: 0x97EF, size: 0x8, addend: 0x0, symName: __ZSt14__copy_move_a1ILb0EPKcPcET1_T0_S4_S3_, symObjAddr: 0x3384, symBinAddr: 0x100003B1C, symSize: 0x2C }
  - { offset: 0x9853, size: 0x8, addend: 0x0, symName: __ZSt12__niter_baseIPcSt6vectorIcSaIcEEET_N9__gnu_cxx17__normal_iteratorIS4_T0_EE, symObjAddr: 0x3364, symBinAddr: 0x100003AFC, symSize: 0x20 }
  - { offset: 0x988D, size: 0x8, addend: 0x0, symName: __ZSt12__niter_baseIPKcSt6vectorIcSaIcEEET_N9__gnu_cxx17__normal_iteratorIS5_T0_EE, symObjAddr: 0x3344, symBinAddr: 0x100003ADC, symSize: 0x20 }
  - { offset: 0x98C7, size: 0x8, addend: 0x0, symName: __ZSt9__fill_a1IcEN9__gnu_cxx11__enable_ifIXsrSt9__is_byteIT_E7__valueEvE6__typeEPS3_S7_RKS3_, symObjAddr: 0x32E8, symBinAddr: 0x100003A80, symSize: 0x5C }
  - { offset: 0x994A, size: 0x8, addend: 0x0, symName: __ZSt18uninitialized_copyIN9__gnu_cxx17__normal_iteratorIPKcSt6vectorIcSaIcEEEEPcET0_T_SA_S9_, symObjAddr: 0x32AC, symBinAddr: 0x100003A44, symSize: 0x3C }
  - { offset: 0x99D3, size: 0x8, addend: 0x0, symName: __ZSt18uninitialized_copyIPcS0_ET0_T_S2_S1_, symObjAddr: 0x3270, symBinAddr: 0x100003A08, symSize: 0x3C }
  - { offset: 0x9A48, size: 0x8, addend: 0x0, symName: __ZSt13__copy_move_aILb0EPcS0_ET1_T0_S2_S1_, symObjAddr: 0x3210, symBinAddr: 0x1000039A8, symSize: 0x60 }
  - { offset: 0x9AAC, size: 0x8, addend: 0x0, symName: __ZSt12__miter_baseIPcET_S1_, symObjAddr: 0x31FC, symBinAddr: 0x100003994, symSize: 0x14 }
  - { offset: 0x9ADD, size: 0x8, addend: 0x0, symName: __ZSt8_DestroyIN9__gnu_cxx17__normal_iteratorIPcSt6vectorIcSaIcEEEEEvT_S7_, symObjAddr: 0x31D4, symBinAddr: 0x10000396C, symSize: 0x28 }
  - { offset: 0x9B1C, size: 0x8, addend: 0x0, symName: __ZSt13__copy_move_aILb0EN9__gnu_cxx17__normal_iteratorIPKcSt6vectorIcSaIcEEEENS1_IPcS6_EEET1_T0_SB_SA_, symObjAddr: 0x3174, symBinAddr: 0x10000390C, symSize: 0x60 }
  - { offset: 0x9B80, size: 0x8, addend: 0x0, symName: __ZSt12__miter_baseIN9__gnu_cxx17__normal_iteratorIPKcSt6vectorIcSaIcEEEEET_S8_, symObjAddr: 0x3160, symBinAddr: 0x1000038F8, symSize: 0x14 }
  - { offset: 0x9BDA, size: 0x8, addend: 0x0, symName: __ZN9__gnu_cxx17__normal_iteratorIPKcSt6vectorIcSaIcEEEC1ERKS2_, symObjAddr: 0x3138, symBinAddr: 0x1000038D0, symSize: 0x28 }
  - { offset: 0x9C06, size: 0x8, addend: 0x0, symName: __ZNSt6vectorIcSaIcEE15_M_erase_at_endEPc, symObjAddr: 0x30B4, symBinAddr: 0x10000384C, symSize: 0x84 }
  - { offset: 0x9C8E, size: 0x8, addend: 0x0, symName: __ZSt8__fill_aIPccEvT_S1_RKT0_, symObjAddr: 0x3084, symBinAddr: 0x10000381C, symSize: 0x30 }
  - { offset: 0x9CE8, size: 0x8, addend: 0x0, symName: __ZSt22__uninitialized_copy_aIN9__gnu_cxx17__normal_iteratorIPKcSt6vectorIcSaIcEEEEPccET0_T_SA_S9_RSaIT1_E, symObjAddr: 0x3054, symBinAddr: 0x1000037EC, symSize: 0x30 }
  - { offset: 0x9D66, size: 0x8, addend: 0x0, symName: __ZSt22__uninitialized_copy_aIPcS0_cET0_T_S2_S1_RSaIT1_E, symObjAddr: 0x3024, symBinAddr: 0x1000037BC, symSize: 0x30 }
  - { offset: 0x9DD1, size: 0x8, addend: 0x0, symName: __ZSt4copyIPcS0_ET0_T_S2_S1_, symObjAddr: 0x2FDC, symBinAddr: 0x100003774, symSize: 0x48 }
  - { offset: 0x9E63, size: 0x8, addend: 0x0, symName: __ZSt4copyIN9__gnu_cxx17__normal_iteratorIPKcSt6vectorIcSaIcEEEENS1_IPcS6_EEET0_T_SB_SA_, symObjAddr: 0x2F94, symBinAddr: 0x10000372C, symSize: 0x48 }
  - { offset: 0x9EC1, size: 0x8, addend: 0x0, symName: __ZNSt6vectorIcSaIcEE20_M_allocate_and_copyIN9__gnu_cxx17__normal_iteratorIPKcS1_EEEEPcmT_S9_, symObjAddr: 0x2F10, symBinAddr: 0x1000036A8, symSize: 0x84 }
  - { offset: 0x9F32, size: 0x8, addend: 0x0, symName: __ZNKSt6vectorIcSaIcEE3endEv, symObjAddr: 0x2EE8, symBinAddr: 0x100003680, symSize: 0x28 }
  - { offset: 0x9F5A, size: 0x8, addend: 0x0, symName: __ZNKSt6vectorIcSaIcEE5beginEv, symObjAddr: 0x2EC4, symBinAddr: 0x10000365C, symSize: 0x24 }
  - { offset: 0x9F82, size: 0x8, addend: 0x0, symName: __ZNKSt6vectorIcSaIcEE8capacityEv, symObjAddr: 0x2EA0, symBinAddr: 0x100003638, symSize: 0x24 }
  - { offset: 0x9FD4, size: 0x8, addend: 0x0, symName: __ZNSt6vectorIcSaIcEE5clearEv, symObjAddr: 0x2E74, symBinAddr: 0x10000360C, symSize: 0x2C }
  - { offset: 0xA00D, size: 0x8, addend: 0x0, symName: __ZNKSt12_Vector_baseIcSaIcEE19_M_get_Tp_allocatorEv, symObjAddr: 0x2E60, symBinAddr: 0x1000035F8, symSize: 0x14 }
  - { offset: 0xA037, size: 0x8, addend: 0x0, symName: __ZSt7forwardIRKSt6vectorIcSaIcEEEOT_RNSt16remove_referenceIS5_E4typeE, symObjAddr: 0x2E4C, symBinAddr: 0x1000035E4, symSize: 0x14 }
  - { offset: 0xA067, size: 0x8, addend: 0x0, symName: __ZSt10__fill_n_aIPcmcET_S1_T0_RKT1_St26random_access_iterator_tag, symObjAddr: 0x2DF0, symBinAddr: 0x100003588, symSize: 0x5C }
  - { offset: 0xA0FB, size: 0x8, addend: 0x0, symName: __ZNSt6vectorIcSaIcEEC1ERKS1_, symObjAddr: 0x2CDC, symBinAddr: 0x100003474, symSize: 0x114 }
  - { offset: 0xA1FF, size: 0x8, addend: 0x0, symName: __ZSt7forwardIRSt6vectorIcSaIcEEEOT_RNSt16remove_referenceIS4_E4typeE, symObjAddr: 0x2CC8, symBinAddr: 0x100003460, symSize: 0x14 }
  - { offset: 0xA233, size: 0x8, addend: 0x0, symName: __ZNSt6vectorIcSaIcEEaSERKS1_, symObjAddr: 0x2998, symBinAddr: 0x100003130, symSize: 0x330 }
  - { offset: 0xA3A2, size: 0x8, addend: 0x0, symName: __ZSt11__addressofIKSt6vectorIcSaIcEEEPT_RS4_, symObjAddr: 0x2984, symBinAddr: 0x10000311C, symSize: 0x14 }
  - { offset: 0xA3D2, size: 0x8, addend: 0x0, symName: __ZSt10_ConstructISt6vectorIcSaIcEEJRKS2_EEvPT_DpOT0_, symObjAddr: 0x2908, symBinAddr: 0x1000030A0, symSize: 0x7C }
  - { offset: 0xA41F, size: 0x8, addend: 0x0, symName: __ZNK9__gnu_cxx17__normal_iteratorIPKSt6vectorIcSaIcEES1_IS3_SaIS3_EEEdeEv, symObjAddr: 0x28F0, symBinAddr: 0x100003088, symSize: 0x18 }
  - { offset: 0xA447, size: 0x8, addend: 0x0, symName: __ZN9__gnu_cxx17__normal_iteratorIPKSt6vectorIcSaIcEES1_IS3_SaIS3_EEEppEv, symObjAddr: 0x28C8, symBinAddr: 0x100003060, symSize: 0x28 }
  - { offset: 0xA471, size: 0x8, addend: 0x0, symName: __ZN9__gnu_cxxneIPKSt6vectorIcSaIcEES1_IS3_SaIS3_EEEEbRKNS_17__normal_iteratorIT_T0_EESD_, symObjAddr: 0x2884, symBinAddr: 0x10000301C, symSize: 0x44 }
  - { offset: 0xA4BB, size: 0x8, addend: 0x0, symName: __ZSt18__do_uninit_fill_nIPSt6vectorIcSaIcEEmS2_ET_S4_T0_RKT1_, symObjAddr: 0x27F4, symBinAddr: 0x100002F8C, symSize: 0x90 }
  - { offset: 0xA52E, size: 0x8, addend: 0x0, symName: __ZSt6fill_nIPcmcET_S1_T0_RKT1_, symObjAddr: 0x27AC, symBinAddr: 0x100002F44, symSize: 0x48 }
  - { offset: 0xA5B0, size: 0x8, addend: 0x0, symName: __ZSt10_ConstructIcJEEvPT_DpOT0_, symObjAddr: 0x2780, symBinAddr: 0x100002F18, symSize: 0x2C }
  - { offset: 0xA5EE, size: 0x8, addend: 0x0, symName: __ZNSt15__new_allocatorIcE8allocateEmPKv, symObjAddr: 0x271C, symBinAddr: 0x100002EB4, symSize: 0x64 }
  - { offset: 0xA66E, size: 0x8, addend: 0x0, symName: __ZSt10_ConstructISt6vectorIcSaIcEEJRS2_EEvPT_DpOT0_, symObjAddr: 0x26A0, symBinAddr: 0x100002E38, symSize: 0x7C }
  - { offset: 0xA6B7, size: 0x8, addend: 0x0, symName: __ZNSt11__copy_moveILb0ELb0ESt26random_access_iterator_tagE8__copy_mIPSt6vectorIcSaIcEES6_EET0_T_S8_S7_, symObjAddr: 0x2620, symBinAddr: 0x100002DB8, symSize: 0x80 }
  - { offset: 0xA740, size: 0x8, addend: 0x0, symName: __ZNSt11__copy_moveILb0ELb0ESt26random_access_iterator_tagE8__copy_mIPKSt6vectorIcSaIcEEPS5_EET0_T_SA_S9_, symObjAddr: 0x25A0, symBinAddr: 0x100002D38, symSize: 0x80 }
  - { offset: 0xA7C9, size: 0x8, addend: 0x0, symName: __ZSt16__do_uninit_copyIN9__gnu_cxx17__normal_iteratorIPKSt6vectorIcSaIcEES2_IS4_SaIS4_EEEEPS4_ET0_T_SC_SB_, symObjAddr: 0x24F8, symBinAddr: 0x100002C90, symSize: 0xA8 }
  - { offset: 0xA82F, size: 0x8, addend: 0x0, symName: __ZNSt22__uninitialized_fill_nILb0EE15__uninit_fill_nIPSt6vectorIcSaIcEEmS4_EET_S6_T0_RKT1_, symObjAddr: 0x24CC, symBinAddr: 0x100002C64, symSize: 0x2C }
  - { offset: 0xA8A6, size: 0x8, addend: 0x0, symName: __ZNSt27__uninitialized_default_n_1ILb1EE18__uninit_default_nIPcmEET_S3_T0_, symObjAddr: 0x2468, symBinAddr: 0x100002C00, symSize: 0x64 }
  - { offset: 0xA94D, size: 0x8, addend: 0x0, symName: __ZSt16__do_uninit_copyIPSt6vectorIcSaIcEES3_ET0_T_S5_S4_, symObjAddr: 0x23D4, symBinAddr: 0x100002B6C, symSize: 0x94 }
  - { offset: 0xA9B3, size: 0x8, addend: 0x0, symName: __ZSt14__copy_move_a2ILb0EPSt6vectorIcSaIcEES3_ET1_T0_S5_S4_, symObjAddr: 0x23A8, symBinAddr: 0x100002B40, symSize: 0x2C }
  - { offset: 0xAA1B, size: 0x8, addend: 0x0, symName: __ZNK9__gnu_cxx17__normal_iteratorIPSt6vectorIcSaIcEES1_IS3_SaIS3_EEEplEl, symObjAddr: 0x235C, symBinAddr: 0x100002AF4, symSize: 0x4C }
  - { offset: 0xAA4F, size: 0x8, addend: 0x0, symName: __ZSt14__copy_move_a2ILb0EPKSt6vectorIcSaIcEEPS2_ET1_T0_S7_S6_, symObjAddr: 0x2330, symBinAddr: 0x100002AC8, symSize: 0x2C }
  - { offset: 0xAAB7, size: 0x8, addend: 0x0, symName: __ZNK9__gnu_cxx17__normal_iteratorIPKSt6vectorIcSaIcEES1_IS3_SaIS3_EEE4baseEv, symObjAddr: 0x231C, symBinAddr: 0x100002AB4, symSize: 0x14 }
  - { offset: 0xAADB, size: 0x8, addend: 0x0, symName: __ZSt8_DestroyISt6vectorIcSaIcEEEvPT_, symObjAddr: 0x22FC, symBinAddr: 0x100002A94, symSize: 0x20 }
  - { offset: 0xAB0B, size: 0x8, addend: 0x0, symName: __ZSt11__addressofISt6vectorIcSaIcEEEPT_RS3_, symObjAddr: 0x22E8, symBinAddr: 0x100002A80, symSize: 0x14 }
  - { offset: 0xAB3B, size: 0x8, addend: 0x0, symName: __ZNSt20__uninitialized_copyILb0EE13__uninit_copyIN9__gnu_cxx17__normal_iteratorIPKSt6vectorIcSaIcEES4_IS6_SaIS6_EEEEPS6_EET0_T_SE_SD_, symObjAddr: 0x22BC, symBinAddr: 0x100002A54, symSize: 0x2C }
  - { offset: 0xAB96, size: 0x8, addend: 0x0, symName: __ZNSt15__new_allocatorISt6vectorIcSaIcEEE8allocateEmPKv, symObjAddr: 0x222C, symBinAddr: 0x1000029C4, symSize: 0x90 }
  - { offset: 0xAC1A, size: 0x8, addend: 0x0, symName: __ZNSt15__new_allocatorIcE10deallocateEPcm, symObjAddr: 0x2204, symBinAddr: 0x10000299C, symSize: 0x28 }
  - { offset: 0xAC5C, size: 0x8, addend: 0x0, symName: __ZSt11__addressofIcEPT_RS0_, symObjAddr: 0x21F0, symBinAddr: 0x100002988, symSize: 0x14 }
  - { offset: 0xAC8C, size: 0x8, addend: 0x0, symName: __ZSt20uninitialized_fill_nIPSt6vectorIcSaIcEEmS2_ET_S4_T0_RKT1_, symObjAddr: 0x21C0, symBinAddr: 0x100002958, symSize: 0x30 }
  - { offset: 0xAD1B, size: 0x8, addend: 0x0, symName: __ZNSt12_Vector_baseISt6vectorIcSaIcEESaIS2_EE17_Vector_impl_dataC2Ev, symObjAddr: 0x2194, symBinAddr: 0x10000292C, symSize: 0x2C }
  - { offset: 0xAD68, size: 0x8, addend: 0x0, symName: __ZNSt12_Destroy_auxILb1EE9__destroyIPcEEvT_S3_, symObjAddr: 0x217C, symBinAddr: 0x100002914, symSize: 0x18 }
  - { offset: 0xAD99, size: 0x8, addend: 0x0, symName: __ZSt25__uninitialized_default_nIPcmET_S1_T0_, symObjAddr: 0x2150, symBinAddr: 0x1000028E8, symSize: 0x2C }
  - { offset: 0xADF8, size: 0x8, addend: 0x0, symName: __ZNSt12_Vector_baseIcSaIcEE11_M_allocateEm, symObjAddr: 0x2100, symBinAddr: 0x100002898, symSize: 0x50 }
  - { offset: 0xAE72, size: 0x8, addend: 0x0, symName: __ZNSt12_Vector_baseIcSaIcEE17_Vector_impl_dataC2Ev, symObjAddr: 0x20D4, symBinAddr: 0x10000286C, symSize: 0x2C }
  - { offset: 0xAE98, size: 0x8, addend: 0x0, symName: __ZSt3minImERKT_S2_S2_, symObjAddr: 0x209C, symBinAddr: 0x100002834, symSize: 0x38 }
  - { offset: 0xAEEB, size: 0x8, addend: 0x0, symName: __ZNSt20__uninitialized_copyILb0EE13__uninit_copyIPSt6vectorIcSaIcEES5_EET0_T_S7_S6_, symObjAddr: 0x2070, symBinAddr: 0x100002808, symSize: 0x2C }
  - { offset: 0xAF42, size: 0x8, addend: 0x0, symName: __ZSt12__niter_wrapIPSt6vectorIcSaIcEEET_RKS4_S4_, symObjAddr: 0x2058, symBinAddr: 0x1000027F0, symSize: 0x18 }
  - { offset: 0xAF7B, size: 0x8, addend: 0x0, symName: __ZSt14__copy_move_a1ILb0EPSt6vectorIcSaIcEES3_ET1_T0_S5_S4_, symObjAddr: 0x202C, symBinAddr: 0x1000027C4, symSize: 0x2C }
  - { offset: 0xAFDF, size: 0x8, addend: 0x0, symName: __ZSt12__niter_baseIPSt6vectorIcSaIcEEET_S4_, symObjAddr: 0x2018, symBinAddr: 0x1000027B0, symSize: 0x14 }
  - { offset: 0xB010, size: 0x8, addend: 0x0, symName: __ZNSt12_Destroy_auxILb0EE9__destroyIN9__gnu_cxx17__normal_iteratorIPSt6vectorIcSaIcEES4_IS6_SaIS6_EEEEEEvT_SB_, symObjAddr: 0x1FC4, symBinAddr: 0x10000275C, symSize: 0x54 }
  - { offset: 0xB04F, size: 0x8, addend: 0x0, symName: __ZSt12__niter_wrapIN9__gnu_cxx17__normal_iteratorIPSt6vectorIcSaIcEES2_IS4_SaIS4_EEEES5_ET_S9_T0_, symObjAddr: 0x1F70, symBinAddr: 0x100002708, symSize: 0x54 }
  - { offset: 0xB099, size: 0x8, addend: 0x0, symName: __ZSt14__copy_move_a1ILb0EPKSt6vectorIcSaIcEEPS2_ET1_T0_S7_S6_, symObjAddr: 0x1F44, symBinAddr: 0x1000026DC, symSize: 0x2C }
  - { offset: 0xB0FD, size: 0x8, addend: 0x0, symName: __ZSt12__niter_baseIPSt6vectorIcSaIcEES0_IS2_SaIS2_EEET_N9__gnu_cxx17__normal_iteratorIS6_T0_EE, symObjAddr: 0x1F24, symBinAddr: 0x1000026BC, symSize: 0x20 }
  - { offset: 0xB137, size: 0x8, addend: 0x0, symName: __ZSt12__niter_baseIPKSt6vectorIcSaIcEES0_IS2_SaIS2_EEET_N9__gnu_cxx17__normal_iteratorIS7_T0_EE, symObjAddr: 0x1F04, symBinAddr: 0x10000269C, symSize: 0x20 }
  - { offset: 0xB171, size: 0x8, addend: 0x0, symName: __ZNSt12_Destroy_auxILb0EE9__destroyIPSt6vectorIcSaIcEEEEvT_S6_, symObjAddr: 0x1EB8, symBinAddr: 0x100002650, symSize: 0x4C }
  - { offset: 0xB1B0, size: 0x8, addend: 0x0, symName: __ZSt18uninitialized_copyIN9__gnu_cxx17__normal_iteratorIPKSt6vectorIcSaIcEES2_IS4_SaIS4_EEEEPS4_ET0_T_SC_SB_, symObjAddr: 0x1E84, symBinAddr: 0x10000261C, symSize: 0x34 }
  - { offset: 0xB24A, size: 0x8, addend: 0x0, symName: __ZNSt15__new_allocatorISt6vectorIcSaIcEEE10deallocateEPS2_m, symObjAddr: 0x1E48, symBinAddr: 0x1000025E0, symSize: 0x3C }
  - { offset: 0xB2D3, size: 0x8, addend: 0x0, symName: __ZSt24__uninitialized_fill_n_aIPSt6vectorIcSaIcEEmS2_S2_ET_S4_T0_RKT1_RSaIT2_E, symObjAddr: 0x1E18, symBinAddr: 0x1000025B0, symSize: 0x30 }
  - { offset: 0xB34B, size: 0x8, addend: 0x0, symName: __ZNSt12_Vector_baseISt6vectorIcSaIcEESaIS2_EE17_M_create_storageEm, symObjAddr: 0x1DAC, symBinAddr: 0x100002544, symSize: 0x6C }
  - { offset: 0xB3A7, size: 0x8, addend: 0x0, symName: __ZNSt12_Vector_baseISt6vectorIcSaIcEESaIS2_EE12_Vector_implC1ERKS3_, symObjAddr: 0x1D60, symBinAddr: 0x1000024F8, symSize: 0x4C }
  - { offset: 0xB441, size: 0x8, addend: 0x0, symName: __ZNSt6vectorIS_IcSaIcEESaIS1_EE11_S_max_sizeERKS2_, symObjAddr: 0x1D04, symBinAddr: 0x10000249C, symSize: 0x5C }
  - { offset: 0xB4EE, size: 0x8, addend: 0x0, symName: __ZSt8_DestroyIPcEvT_S1_, symObjAddr: 0x1CDC, symBinAddr: 0x100002474, symSize: 0x28 }
  - { offset: 0xB52D, size: 0x8, addend: 0x0, symName: __ZSt27__uninitialized_default_n_aIPcmcET_S1_T0_RSaIT1_E, symObjAddr: 0x1CB4, symBinAddr: 0x10000244C, symSize: 0x28 }
  - { offset: 0xB58C, size: 0x8, addend: 0x0, symName: __ZNSt12_Vector_baseIcSaIcEE13_M_deallocateEPcm, symObjAddr: 0x1C5C, symBinAddr: 0x1000023F4, symSize: 0x58 }
  - { offset: 0xB606, size: 0x8, addend: 0x0, symName: __ZNSt12_Vector_baseIcSaIcEE17_M_create_storageEm, symObjAddr: 0x1C00, symBinAddr: 0x100002398, symSize: 0x5C }
  - { offset: 0xB662, size: 0x8, addend: 0x0, symName: __ZNSt12_Vector_baseIcSaIcEE12_Vector_implC1ERKS0_, symObjAddr: 0x1BB4, symBinAddr: 0x10000234C, symSize: 0x4C }
  - { offset: 0xB6DC, size: 0x8, addend: 0x0, symName: __ZNSt6vectorIcSaIcEE11_S_max_sizeERKS0_, symObjAddr: 0x1B60, symBinAddr: 0x1000022F8, symSize: 0x54 }
  - { offset: 0xB789, size: 0x8, addend: 0x0, symName: __ZSt18uninitialized_copyIPSt6vectorIcSaIcEES3_ET0_T_S5_S4_, symObjAddr: 0x1B2C, symBinAddr: 0x1000022C4, symSize: 0x34 }
  - { offset: 0xB7FE, size: 0x8, addend: 0x0, symName: __ZSt13__copy_move_aILb0EPSt6vectorIcSaIcEES3_ET1_T0_S5_S4_, symObjAddr: 0x1ACC, symBinAddr: 0x100002264, symSize: 0x60 }
  - { offset: 0xB862, size: 0x8, addend: 0x0, symName: __ZSt12__miter_baseIPSt6vectorIcSaIcEEET_S4_, symObjAddr: 0x1AB8, symBinAddr: 0x100002250, symSize: 0x14 }
  - { offset: 0xB893, size: 0x8, addend: 0x0, symName: __ZSt8_DestroyIN9__gnu_cxx17__normal_iteratorIPSt6vectorIcSaIcEES2_IS4_SaIS4_EEEEEvT_S9_, symObjAddr: 0x1A90, symBinAddr: 0x100002228, symSize: 0x28 }
  - { offset: 0xB8D2, size: 0x8, addend: 0x0, symName: __ZSt13__copy_move_aILb0EN9__gnu_cxx17__normal_iteratorIPKSt6vectorIcSaIcEES2_IS4_SaIS4_EEEENS1_IPS4_S8_EEET1_T0_SD_SC_, symObjAddr: 0x1A30, symBinAddr: 0x1000021C8, symSize: 0x60 }
  - { offset: 0xB936, size: 0x8, addend: 0x0, symName: __ZSt12__miter_baseIN9__gnu_cxx17__normal_iteratorIPKSt6vectorIcSaIcEES2_IS4_SaIS4_EEEEET_SA_, symObjAddr: 0x1A1C, symBinAddr: 0x1000021B4, symSize: 0x14 }
  - { offset: 0xB967, size: 0x8, addend: 0x0, symName: __ZSt8_DestroyIPSt6vectorIcSaIcEEEvT_S4_, symObjAddr: 0x19F4, symBinAddr: 0x10000218C, symSize: 0x28 }
  - { offset: 0xB9A6, size: 0x8, addend: 0x0, symName: __ZSt22__uninitialized_copy_aIN9__gnu_cxx17__normal_iteratorIPKSt6vectorIcSaIcEES2_IS4_SaIS4_EEEEPS4_S4_ET0_T_SC_SB_RSaIT1_E, symObjAddr: 0x19C4, symBinAddr: 0x10000215C, symSize: 0x30 }
  - { offset: 0xBA15, size: 0x8, addend: 0x0, symName: __ZNSt12_Vector_baseISt6vectorIcSaIcEESaIS2_EE11_M_allocateEm, symObjAddr: 0x1974, symBinAddr: 0x10000210C, symSize: 0x50 }
  - { offset: 0xBA9C, size: 0x8, addend: 0x0, symName: __ZN9__gnu_cxx17__normal_iteratorIPKSt6vectorIcSaIcEES1_IS3_SaIS3_EEEC1ERKS5_, symObjAddr: 0x194C, symBinAddr: 0x1000020E4, symSize: 0x28 }
  - { offset: 0xBAF6, size: 0x8, addend: 0x0, symName: __ZNSt6vectorIS_IcSaIcEESaIS1_EE15_M_erase_at_endEPS1_, symObjAddr: 0x18B8, symBinAddr: 0x100002050, symSize: 0x94 }
  - { offset: 0xBBB7, size: 0x8, addend: 0x0, symName: __ZNSt6vectorIS_IcSaIcEESaIS1_EE18_M_fill_initializeEmRKS1_, symObjAddr: 0x1860, symBinAddr: 0x100001FF8, symSize: 0x58 }
  - { offset: 0xBC20, size: 0x8, addend: 0x0, symName: __ZNSt12_Vector_baseISt6vectorIcSaIcEESaIS2_EED2Ev, symObjAddr: 0x1804, symBinAddr: 0x100001F9C, symSize: 0x5C }
  - { offset: 0xBC76, size: 0x8, addend: 0x0, symName: __ZNSt12_Vector_baseISt6vectorIcSaIcEESaIS2_EEC2EmRKS3_, symObjAddr: 0x17B0, symBinAddr: 0x100001F48, symSize: 0x54 }
  - { offset: 0xBCCF, size: 0x8, addend: 0x0, symName: __ZNSt12_Vector_baseISt6vectorIcSaIcEESaIS2_EE12_Vector_implD1Ev, symObjAddr: 0x1784, symBinAddr: 0x100001F1C, symSize: 0x2C }
  - { offset: 0xBD10, size: 0x8, addend: 0x0, symName: __ZNSt6vectorIS_IcSaIcEESaIS1_EE17_S_check_init_lenEmRKS2_, symObjAddr: 0x1700, symBinAddr: 0x100001E98, symSize: 0x84 }
  - { offset: 0xBDDC, size: 0x8, addend: 0x0, symName: __ZNSt15__new_allocatorISt6vectorIcSaIcEEED2Ev, symObjAddr: 0x16EC, symBinAddr: 0x100001E84, symSize: 0x14 }
  - { offset: 0xBE4C, size: 0x8, addend: 0x0, symName: __ZNSt12_Vector_baseIcSaIcEE19_M_get_Tp_allocatorEv, symObjAddr: 0x16D8, symBinAddr: 0x100001E70, symSize: 0x14 }
  - { offset: 0xBE74, size: 0x8, addend: 0x0, symName: __ZNSt6vectorIcSaIcEE21_M_default_initializeEm, symObjAddr: 0x1688, symBinAddr: 0x100001E20, symSize: 0x50 }
  - { offset: 0xBECD, size: 0x8, addend: 0x0, symName: __ZNSt12_Vector_baseIcSaIcEED2Ev, symObjAddr: 0x163C, symBinAddr: 0x100001DD4, symSize: 0x4C }
  - { offset: 0xBF23, size: 0x8, addend: 0x0, symName: __ZNSt12_Vector_baseIcSaIcEEC2EmRKS0_, symObjAddr: 0x15E8, symBinAddr: 0x100001D80, symSize: 0x54 }
  - { offset: 0xBF7C, size: 0x8, addend: 0x0, symName: __ZNSt12_Vector_baseIcSaIcEE12_Vector_implD1Ev, symObjAddr: 0x15BC, symBinAddr: 0x100001D54, symSize: 0x2C }
  - { offset: 0xBFBD, size: 0x8, addend: 0x0, symName: __ZNSt6vectorIcSaIcEE17_S_check_init_lenEmRKS0_, symObjAddr: 0x1538, symBinAddr: 0x100001CD0, symSize: 0x84 }
  - { offset: 0xC064, size: 0x8, addend: 0x0, symName: __ZSt22__uninitialized_copy_aIPSt6vectorIcSaIcEES3_S2_ET0_T_S5_S4_RSaIT1_E, symObjAddr: 0x1508, symBinAddr: 0x100001CA0, symSize: 0x30 }
  - { offset: 0xC0CF, size: 0x8, addend: 0x0, symName: __ZSt4copyIPSt6vectorIcSaIcEES3_ET0_T_S5_S4_, symObjAddr: 0x14C0, symBinAddr: 0x100001C58, symSize: 0x48 }
  - { offset: 0xC161, size: 0x8, addend: 0x0, symName: __ZSt4copyIN9__gnu_cxx17__normal_iteratorIPKSt6vectorIcSaIcEES2_IS4_SaIS4_EEEENS1_IPS4_S8_EEET0_T_SD_SC_, symObjAddr: 0x1478, symBinAddr: 0x100001C10, symSize: 0x48 }
  - { offset: 0xC1F7, size: 0x8, addend: 0x0, symName: __ZNSt6vectorIS_IcSaIcEESaIS1_EE20_M_allocate_and_copyIN9__gnu_cxx17__normal_iteratorIPKS1_S3_EEEEPS1_mT_SB_, symObjAddr: 0x13F4, symBinAddr: 0x100001B8C, symSize: 0x84 }
  - { offset: 0xC268, size: 0x8, addend: 0x0, symName: __ZNKSt6vectorIS_IcSaIcEESaIS1_EE3endEv, symObjAddr: 0x13CC, symBinAddr: 0x100001B64, symSize: 0x28 }
  - { offset: 0xC290, size: 0x8, addend: 0x0, symName: __ZNKSt6vectorIS_IcSaIcEESaIS1_EE5beginEv, symObjAddr: 0x13A8, symBinAddr: 0x100001B40, symSize: 0x24 }
  - { offset: 0xC2B8, size: 0x8, addend: 0x0, symName: __ZNKSt6vectorIS_IcSaIcEESaIS1_EE8capacityEv, symObjAddr: 0x1374, symBinAddr: 0x100001B0C, symSize: 0x34 }
  - { offset: 0xC30A, size: 0x8, addend: 0x0, symName: __ZNSt12_Vector_baseISt6vectorIcSaIcEESaIS2_EE13_M_deallocateEPS2_m, symObjAddr: 0x131C, symBinAddr: 0x100001AB4, symSize: 0x58 }
  - { offset: 0xC384, size: 0x8, addend: 0x0, symName: __ZNSt6vectorIS_IcSaIcEESaIS1_EE5clearEv, symObjAddr: 0x12F0, symBinAddr: 0x100001A88, symSize: 0x2C }
  - { offset: 0xC3BD, size: 0x8, addend: 0x0, symName: __ZNKSt12_Vector_baseISt6vectorIcSaIcEESaIS2_EE19_M_get_Tp_allocatorEv, symObjAddr: 0x12DC, symBinAddr: 0x100001A74, symSize: 0x14 }
  - { offset: 0xC3E5, size: 0x8, addend: 0x0, symName: __ZNSt12_Vector_baseISt6vectorIcSaIcEESaIS2_EE19_M_get_Tp_allocatorEv, symObjAddr: 0x12C8, symBinAddr: 0x100001A60, symSize: 0x14 }
  - { offset: 0xC40D, size: 0x8, addend: 0x0, symName: __ZNK9__gnu_cxx17__normal_iteratorIPcSt6vectorIcSaIcEEE4baseEv, symObjAddr: 0x12B4, symBinAddr: 0x100001A4C, symSize: 0x14 }
  - { offset: 0xC45A, size: 0x8, addend: 0x0, symName: __ZN9__gnu_cxx17__normal_iteratorIPcSt6vectorIcSaIcEEEC1ERKS1_, symObjAddr: 0x128C, symBinAddr: 0x100001A24, symSize: 0x28 }
  - { offset: 0xC486, size: 0x8, addend: 0x0, symName: __ZNK9__gnu_cxx17__normal_iteratorIPSt6vectorIcSaIcEES1_IS3_SaIS3_EEE4baseEv, symObjAddr: 0x1278, symBinAddr: 0x100001A10, symSize: 0x14 }
  - { offset: 0xC4D3, size: 0x8, addend: 0x0, symName: __ZN9__gnu_cxx17__normal_iteratorIPSt6vectorIcSaIcEES1_IS3_SaIS3_EEEC1ERKS4_, symObjAddr: 0x1250, symBinAddr: 0x1000019E8, symSize: 0x28 }
  - { offset: 0xC520, size: 0x8, addend: 0x0, symName: __ZNSt15__new_allocatorIcED2Ev, symObjAddr: 0x123C, symBinAddr: 0x1000019D4, symSize: 0x14 }
  - { offset: 0xC579, size: 0x8, addend: 0x0, symName: __ZNSt6vectorIS_IcSaIcEESaIS1_EED1Ev, symObjAddr: 0x11E0, symBinAddr: 0x100001978, symSize: 0x5C }
  - { offset: 0xC60E, size: 0x8, addend: 0x0, symName: __ZNSt6vectorIS_IcSaIcEESaIS1_EEC1EmRKS1_RKS2_, symObjAddr: 0x1170, symBinAddr: 0x100001908, symSize: 0x70 }
  - { offset: 0xC69C, size: 0x8, addend: 0x0, symName: __ZNSt6vectorIcSaIcEED1Ev, symObjAddr: 0x1114, symBinAddr: 0x1000018AC, symSize: 0x5C }
  - { offset: 0xC724, size: 0x8, addend: 0x0, symName: __ZNSt6vectorIcSaIcEEC1EmRKS0_, symObjAddr: 0x10AC, symBinAddr: 0x100001844, symSize: 0x68 }
  - { offset: 0xC758, size: 0x8, addend: 0x0, symName: __ZNSt6vectorIS_IcSaIcEESaIS1_EEaSERKS3_, symObjAddr: 0xD14, symBinAddr: 0x1000014AC, symSize: 0x398 }
  - { offset: 0xC8C7, size: 0x8, addend: 0x0, symName: __ZSt11__addressofIKSt6vectorIS0_IcSaIcEESaIS2_EEEPT_RS6_, symObjAddr: 0xD00, symBinAddr: 0x100001498, symSize: 0x14 }
  - { offset: 0xC8FB, size: 0x8, addend: 0x0, symName: __ZNSt6vectorIcSaIcEEixEm, symObjAddr: 0xCDC, symBinAddr: 0x100001474, symSize: 0x24 }
  - { offset: 0xC933, size: 0x8, addend: 0x0, symName: __ZNKSt6vectorIcSaIcEE4sizeEv, symObjAddr: 0xCB8, symBinAddr: 0x100001450, symSize: 0x24 }
  - { offset: 0xC95B, size: 0x8, addend: 0x0, symName: __ZNSt6vectorIS_IcSaIcEESaIS1_EEixEm, symObjAddr: 0xC84, symBinAddr: 0x10000141C, symSize: 0x34 }
  - { offset: 0xC993, size: 0x8, addend: 0x0, symName: __ZNKSt6vectorIS_IcSaIcEESaIS1_EE4sizeEv, symObjAddr: 0xC50, symBinAddr: 0x1000013E8, symSize: 0x34 }
  - { offset: 0xC9BB, size: 0x8, addend: 0x0, symName: __ZNK9__gnu_cxx17__normal_iteratorIPcSt6vectorIcSaIcEEEdeEv, symObjAddr: 0xC38, symBinAddr: 0x1000013D0, symSize: 0x18 }
  - { offset: 0xC9E3, size: 0x8, addend: 0x0, symName: __ZN9__gnu_cxx17__normal_iteratorIPcSt6vectorIcSaIcEEEppEv, symObjAddr: 0xC10, symBinAddr: 0x1000013A8, symSize: 0x28 }
  - { offset: 0xCA0D, size: 0x8, addend: 0x0, symName: __ZN9__gnu_cxxneIPcSt6vectorIcSaIcEEEEbRKNS_17__normal_iteratorIT_T0_EESA_, symObjAddr: 0xBCC, symBinAddr: 0x100001364, symSize: 0x44 }
  - { offset: 0xCA5B, size: 0x8, addend: 0x0, symName: __ZNSt6vectorIcSaIcEE3endEv, symObjAddr: 0xBA4, symBinAddr: 0x10000133C, symSize: 0x28 }
  - { offset: 0xCA83, size: 0x8, addend: 0x0, symName: __ZNSt6vectorIcSaIcEE5beginEv, symObjAddr: 0xB80, symBinAddr: 0x100001318, symSize: 0x24 }
  - { offset: 0xCAAB, size: 0x8, addend: 0x0, symName: __ZNK9__gnu_cxx17__normal_iteratorIPSt6vectorIcSaIcEES1_IS3_SaIS3_EEEdeEv, symObjAddr: 0xB68, symBinAddr: 0x100001300, symSize: 0x18 }
  - { offset: 0xCAD3, size: 0x8, addend: 0x0, symName: __ZN9__gnu_cxx17__normal_iteratorIPSt6vectorIcSaIcEES1_IS3_SaIS3_EEEppEv, symObjAddr: 0xB40, symBinAddr: 0x1000012D8, symSize: 0x28 }
  - { offset: 0xCAFD, size: 0x8, addend: 0x0, symName: __ZN9__gnu_cxxneIPSt6vectorIcSaIcEES1_IS3_SaIS3_EEEEbRKNS_17__normal_iteratorIT_T0_EESC_, symObjAddr: 0xAFC, symBinAddr: 0x100001294, symSize: 0x44 }
  - { offset: 0xCB4B, size: 0x8, addend: 0x0, symName: __ZNSt6vectorIS_IcSaIcEESaIS1_EE3endEv, symObjAddr: 0xAD4, symBinAddr: 0x10000126C, symSize: 0x28 }
  - { offset: 0xCB73, size: 0x8, addend: 0x0, symName: __ZNSt6vectorIS_IcSaIcEESaIS1_EE5beginEv, symObjAddr: 0xAB0, symBinAddr: 0x100001248, symSize: 0x24 }
  - { offset: 0xCBD0, size: 0x8, addend: 0x0, symName: _main, symObjAddr: 0x668, symBinAddr: 0x100000E00, symSize: 0x448 }
  - { offset: 0xCF70, size: 0x8, addend: 0x0, symName: __Z3recRSt6vectorIS_IcSaIcEESaIS1_EES4_S4_iii, symObjAddr: 0x4D0, symBinAddr: 0x100000C68, symSize: 0x198 }
  - { offset: 0xD02C, size: 0x8, addend: 0x0, symName: __Z12printAllStarRSt6vectorIS_IcSaIcEESaIS1_EES4_, symObjAddr: 0x344, symBinAddr: 0x100000ADC, symSize: 0x18C }
  - { offset: 0xD0EB, size: 0x8, addend: 0x0, symName: __Z9printSameRSt6vectorIS_IcSaIcEESaIS1_EES4_, symObjAddr: 0x190, symBinAddr: 0x100000928, symSize: 0x1B4 }
  - { offset: 0xD1AA, size: 0x8, addend: 0x0, symName: __Z5printRSt6vectorIS_IcSaIcEESaIS1_EE, symObjAddr: 0xAC, symBinAddr: 0x100000844, symSize: 0xE4 }
  - { offset: 0xD26E, size: 0x8, addend: 0x0, symName: __Z6binpowii, symObjAddr: 0x44, symBinAddr: 0x1000007DC, symSize: 0x68 }
  - { offset: 0xD2B3, size: 0x8, addend: 0x0, symName: __ZSt17__size_to_integerm, symObjAddr: 0x30, symBinAddr: 0x1000007C8, symSize: 0x14 }
  - { offset: 0xD2E3, size: 0x8, addend: 0x0, symName: __ZdlPvS_, symObjAddr: 0x18, symBinAddr: 0x1000007B0, symSize: 0x18 }
  - { offset: 0xD317, size: 0x8, addend: 0x0, symName: __ZnwmPv, symObjAddr: 0x0, symBinAddr: 0x100000798, symSize: 0x18 }
...
